target datalayout = "e-m:e-p270:32:32-p271:32:32-p272:64:64-i64:64-i128:128-f80:128-n8:16:32:64-S128"
target triple = "x86_64-pc-linux-gnu"

@.str.32 = private unnamed_addr constant [34 x i8] c"nghttp2_session_terminate_session\00", align 1

; Function Attrs: nounwind uwtable
define internal i32 @on_stream_close_callback(ptr noundef %0, i32 noundef %1, i32 noundef %2, ptr noundef %3) #0 {
  %5 = alloca ptr, align 8
  %6 = alloca i32, align 4
  %7 = alloca i32, align 4
  %8 = alloca ptr, align 8
  %9 = alloca ptr, align 8
  %10 = alloca i32, align 4
  store ptr %0, ptr %5, align 8, !tbaa !84
  store i32 %1, ptr %6, align 4, !tbaa !4
  store i32 %2, ptr %7, align 4, !tbaa !4
  store ptr %3, ptr %8, align 8, !tbaa !85
  call void @llvm.lifetime.start.p0(i64 8, ptr %9) #11
  %11 = load ptr, ptr %5, align 8, !tbaa !84
  %12 = load i32, ptr %6, align 4, !tbaa !4
  %13 = call ptr @nghttp2_session_get_stream_user_data(ptr noundef %11, i32 noundef %12)
  store ptr %13, ptr %9, align 8, !tbaa !53
  %14 = load ptr, ptr %9, align 8, !tbaa !53
  %15 = icmp ne ptr %14, null
  br i1 %15, label %16, label %24

16:                                               ; preds = %4
  call void @llvm.lifetime.start.p0(i64 4, ptr %10) #11
  %17 = load ptr, ptr %5, align 8, !tbaa !84
  %18 = call i32 @nghttp2_session_terminate_session(ptr noundef %17, i32 noundef 0)
  store i32 %18, ptr %10, align 4, !tbaa !4
  %19 = load i32, ptr %10, align 4, !tbaa !4
  %20 = icmp ne i32 %19, 0
  br i1 %20, label %21, label %23

21:                                               ; preds = %16
  %22 = load i32, ptr %10, align 4, !tbaa !4
  call void @diec(ptr noundef @.str.32, i32 noundef %22) #12
  unreachable

23:                                               ; preds = %16
  call void @llvm.lifetime.end.p0(i64 4, ptr %10) #11
  br label %24

24:                                               ; preds = %23, %4
  call void @llvm.lifetime.end.p0(i64 8, ptr %9) #11
  ret i32 0
}