; Function Attrs: nounwind uwtable
define internal noundef i32 @on_stream_close_callback(ptr noundef %0, i32 noundef %1, i32 %2, ptr readnone captures(none) %3) #0 {
  %5 = tail call ptr @nghttp2_session_get_stream_user_data(ptr noundef %0, i32 noundef %1) #16
  %.not = icmp eq ptr %5, null
  br i1 %.not, label %9, label %6

6:                                                ; preds = %4
  %7 = tail call i32 @nghttp2_session_terminate_session(ptr noundef %0, i32 noundef 0) #16
  %.not5 = icmp eq i32 %7, 0
  br i1 %.not5, label %9, label %8

8:                                                ; preds = %6
  tail call fastcc void @diec(ptr noundef nonnull @.str.32, i32 noundef %7) #17
  unreachable

9:                                                ; preds = %6, %4
  ret i32 0
}